; Function Attrs: nounwind uwtable
define ptr @l_Array_foldlMUnsafe_fold___at_Lean_LocalContext_getFVarIds___spec__5(ptr noundef readonly captures(none) %0, i64 noundef %1, i64 noundef %2, ptr noundef %3) local_unnamed_addr #2 {
  %.not46 = icmp eq i64 %1, %2
  br i1 %.not46, label %._crit_edge, label %.lr.ph

.lr.ph:                                           ; preds = %4
  %5 = getelementptr inbounds nuw i8, ptr %0, i64 24
  br label %6

6:                                                ; preds = %.lr.ph, %61
  %.02048 = phi i64 [ %1, %.lr.ph ], [ %23, %61 ]
  %.02247 = phi ptr [ %3, %.lr.ph ], [ %.224, %61 ]
  %7 = getelementptr inbounds nuw [0 x ptr], ptr %5, i64 0, i64 %.02048
  %8 = load ptr, ptr %7, align 8, !tbaa !9
  %9 = ptrtoint ptr %8 to i64
  %10 = and i64 %9, 1
  %.not.i30 = icmp eq i64 %10, 0
  br i1 %.not.i30, label %11, label %17

11:                                               ; preds = %6
  %.val.i.i = load i32, ptr %8, align 4, !tbaa !4
  %12 = icmp sgt i32 %.val.i.i, 0
  br i1 %12, label %13, label %15, !prof !11

13:                                               ; preds = %11
  %14 = add nuw i32 %.val.i.i, 1
  store i32 %14, ptr %8, align 4, !tbaa !4
  br label %20

15:                                               ; preds = %11
  %.not.i.i = icmp eq i32 %.val.i.i, 0
  br i1 %.not.i.i, label %20, label %16

16:                                               ; preds = %15
  tail call void @lean_inc_ref_cold(ptr noundef nonnull %8) #8
  br label %20

17:                                               ; preds = %6
  %18 = lshr i64 %9, 1
  %19 = trunc i64 %18 to i32
  br label %lean_obj_tag.exit

20:                                               ; preds = %13, %15, %16
  %21 = getelementptr i8, ptr %8, i64 4
  %.val.i = load i32, ptr %21, align 4
  %22 = lshr i32 %.val.i, 24
  br label %lean_obj_tag.exit

lean_obj_tag.exit:                                ; preds = %17, %20
  %.0.i = phi i32 [ %19, %17 ], [ %22, %20 ]
  %23 = add i64 %.02048, 1
  %24 = icmp eq i32 %.0.i, 0
  br i1 %24, label %61, label %25

25:                                               ; preds = %lean_obj_tag.exit
  %26 = getelementptr inbounds nuw i8, ptr %8, i64 8
  %27 = load ptr, ptr %26, align 8, !tbaa !9
  %28 = ptrtoint ptr %27 to i64
  %29 = and i64 %28, 1
  %.not44 = icmp eq i64 %29, 0
  br i1 %.not44, label %30, label %lean_inc.exit

30:                                               ; preds = %25
  %.val.i32 = load i32, ptr %27, align 4, !tbaa !4
  %31 = icmp sgt i32 %.val.i32, 0
  br i1 %31, label %32, label %34, !prof !11

32:                                               ; preds = %30
  %33 = add nuw i32 %.val.i32, 1
  store i32 %33, ptr %27, align 4, !tbaa !4
  br label %lean_inc.exit

34:                                               ; preds = %30
  %.not.i33 = icmp eq i32 %.val.i32, 0
  br i1 %.not.i33, label %lean_inc.exit, label %35

35:                                               ; preds = %34
  tail call void @lean_inc_ref_cold(ptr noundef nonnull %27) #8
  br label %lean_inc.exit

lean_inc.exit:                                    ; preds = %35, %34, %32, %25
  br i1 %.not.i30, label %36, label %lean_dec.exit27

36:                                               ; preds = %lean_inc.exit
  %37 = load i32, ptr %8, align 4, !tbaa !4
  %38 = icmp sgt i32 %37, 1
  br i1 %38, label %39, label %41, !prof !11

39:                                               ; preds = %36
  %40 = add nsw i32 %37, -1
  store i32 %40, ptr %8, align 4, !tbaa !4
  br label %lean_dec.exit27

41:                                               ; preds = %36
  %.not.i = icmp eq i32 %37, 0
  br i1 %.not.i, label %lean_dec.exit27, label %42

42:                                               ; preds = %41
  tail call void @lean_dec_ref_cold(ptr noundef nonnull %8) #8
  br label %lean_dec.exit27

lean_dec.exit27:                                  ; preds = %42, %41, %39, %lean_inc.exit
  %43 = getelementptr inbounds nuw i8, ptr %27, i64 16
  %44 = load ptr, ptr %43, align 8, !tbaa !9
  %45 = ptrtoint ptr %44 to i64
  %46 = and i64 %45, 1
  %.not.i34 = icmp eq i64 %46, 0
  br i1 %.not.i34, label %47, label %l_Lean_LocalDecl_fvarId.exit

47:                                               ; preds = %lean_dec.exit27
  %.val.i.i35 = load i32, ptr %44, align 4, !tbaa !4
  %48 = icmp sgt i32 %.val.i.i35, 0
  br i1 %48, label %49, label %51, !prof !11

49:                                               ; preds = %47
  %50 = add nuw i32 %.val.i.i35, 1
  store i32 %50, ptr %44, align 4, !tbaa !4
  br label %l_Lean_LocalDecl_fvarId.exit

51:                                               ; preds = %47
  %.not.i.i36 = icmp eq i32 %.val.i.i35, 0
  br i1 %.not.i.i36, label %l_Lean_LocalDecl_fvarId.exit, label %52

52:                                               ; preds = %51
  tail call void @lean_inc_ref_cold(ptr noundef nonnull %44) #8
  br label %l_Lean_LocalDecl_fvarId.exit

l_Lean_LocalDecl_fvarId.exit:                     ; preds = %lean_dec.exit27, %49, %51, %52
  br i1 %.not44, label %53, label %lean_dec.exit

53:                                               ; preds = %l_Lean_LocalDecl_fvarId.exit
  %54 = load i32, ptr %27, align 4, !tbaa !4
  %55 = icmp sgt i32 %54, 1
  br i1 %55, label %56, label %58, !prof !11

56:                                               ; preds = %53
  %57 = add nsw i32 %54, -1
  store i32 %57, ptr %27, align 4, !tbaa !4
  br label %lean_dec.exit

58:                                               ; preds = %53
  %.not.i28 = icmp eq i32 %54, 0
  br i1 %.not.i28, label %lean_dec.exit, label %59

59:                                               ; preds = %58
  tail call void @lean_dec_ref_cold(ptr noundef nonnull %27) #8
  br label %lean_dec.exit

lean_dec.exit:                                    ; preds = %59, %58, %56, %l_Lean_LocalDecl_fvarId.exit
  %60 = tail call ptr @lean_array_push(ptr noundef %.02247, ptr noundef %44) #8
  br label %61

61:                                               ; preds = %lean_dec.exit, %lean_obj_tag.exit
  %.224 = phi ptr [ %60, %lean_dec.exit ], [ %.02247, %lean_obj_tag.exit ]
  %.not = icmp eq i64 %23, %2
  br i1 %.not, label %._crit_edge, label %6

._crit_edge:                                      ; preds = %61, %4
  %.022.lcssa = phi ptr [ %3, %4 ], [ %.224, %61 ]
  ret ptr %.022.lcssa
}